target datalayout = "e-m:e-p270:32:32-p271:32:32-p272:64:64-i64:64-i128:128-f80:128-n8:16:32:64-S128"
target triple = "x86_64-pc-linux-gnu"

%class.Register = type { i32 }
%class.RelocationHolder = type { [40 x i8] }
%class.AddressLiteral = type { %class.RelocationHolder, i8, ptr }
%class.ExternalAddress = type { %class.AddressLiteral }

@.str = private unnamed_addr constant [42 x i8] c"src/hotspot/cpu/x86/templateTable_x86.cpp\00", align 1
@_ZN13TemplateTable5_masmE = external global ptr, align 8
@_ZL5noreg = internal constant %class.Register { i32 -1 }, align 4
@_ZL3rax = internal constant %class.Register zeroinitializer, align 4
@_ZL3rcx = internal constant %class.Register { i32 1 }, align 4
@_ZL3rdx = internal constant %class.Register { i32 2 }, align 4
@_ZN19TemplateInterpreter32_throw_ArithmeticException_entryE = external global ptr, align 8
@PrintInterpreter = external global i8, align 1

; Function Attrs: mustprogress nounwind uwtable
define linkonce_odr hidden noundef ptr @_ZNK16RelocationHolder5relocEv(ptr noundef nonnull align 8 dereferenceable(40) %0) #1 comdat align 2 {
  %2 = alloca ptr, align 8
  store ptr %0, ptr %2, align 8
  %3 = load ptr, ptr %2, align 8
  %4 = getelementptr inbounds %class.RelocationHolder, ptr %3, i32 0, i32 0
  %5 = getelementptr inbounds [40 x i8], ptr %4, i64 0, i64 0
  ret ptr %5
}

; Function Attrs: mustprogress nounwind uwtable
define linkonce_odr hidden noundef zeroext i1 @_ZN24external_word_Relocation16can_be_relocatedEPh(ptr noundef %0) #1 comdat align 2 {
  %2 = alloca ptr, align 8
  store ptr %0, ptr %2, align 8
  %3 = load ptr, ptr %2, align 8
  %4 = icmp ne ptr %3, null
  ret i1 %4
}

; Function Attrs: mustprogress nounwind uwtable
define linkonce_odr hidden void @_ZN16RelocationHolderC2ERKS_(ptr noundef nonnull align 8 dereferenceable(40) %0, ptr noundef nonnull align 8 dereferenceable(40) %1) unnamed_addr #1 comdat align 2 {
  %3 = alloca ptr, align 8
  %4 = alloca ptr, align 8
  store ptr %0, ptr %3, align 8
  store ptr %1, ptr %4, align 8
  %5 = load ptr, ptr %3, align 8
  %6 = load ptr, ptr %4, align 8
  %7 = call noundef ptr @_ZNK16RelocationHolder5relocEv(ptr noundef nonnull align 8 dereferenceable(40) %6)
  %8 = load ptr, ptr %7, align 8
  %9 = getelementptr inbounds ptr, ptr %8, i64 2
  %10 = load ptr, ptr %9, align 8
  call void %10(ptr noundef nonnull align 8 dereferenceable(20) %7, ptr noundef nonnull align 8 dereferenceable(40) %5)
  ret void
}

; Function Attrs: mustprogress nounwind uwtable
define linkonce_odr hidden noundef i32 @_ZN15ExternalAddress16reloc_for_targetEPh(ptr noundef %0) #1 comdat align 2 {
  %2 = alloca ptr, align 8
  store ptr %0, ptr %2, align 8
  %3 = load ptr, ptr %2, align 8
  %4 = call noundef zeroext i1 @_ZN24external_word_Relocation16can_be_relocatedEPh(ptr noundef %3)
  %5 = select i1 %4, i32 7, i32 0
  ret i32 %5
}

; Function Attrs: mustprogress nounwind uwtable
define linkonce_odr hidden void @_ZN14AddressLiteralC2EOS_(ptr noundef nonnull align 8 dereferenceable(56) %0, ptr noundef nonnull align 8 dereferenceable(56) %1) unnamed_addr #1 comdat align 2 {
  %3 = alloca ptr, align 8
  %4 = alloca ptr, align 8
  store ptr %0, ptr %3, align 8
  store ptr %1, ptr %4, align 8
  %5 = load ptr, ptr %3, align 8
  %6 = getelementptr inbounds %class.AddressLiteral, ptr %5, i32 0, i32 0
  %7 = load ptr, ptr %4, align 8
  %8 = getelementptr inbounds %class.AddressLiteral, ptr %7, i32 0, i32 0
  call void @_ZN16RelocationHolderC2ERKS_(ptr noundef nonnull align 8 dereferenceable(40) %6, ptr noundef nonnull align 8 dereferenceable(40) %8)
  %9 = getelementptr inbounds %class.AddressLiteral, ptr %5, i32 0, i32 1
  %10 = load ptr, ptr %4, align 8
  %11 = getelementptr inbounds %class.AddressLiteral, ptr %10, i32 0, i32 1
  call void @llvm.memcpy.p0.p0.i64(ptr align 8 %9, ptr align 8 %11, i64 16, i1 false)
  ret void
}

; Function Attrs: mustprogress nounwind uwtable
define linkonce_odr hidden void @_ZN15ExternalAddressC2EPh(ptr noundef nonnull align 8 dereferenceable(56) %0, ptr noundef %1) unnamed_addr #1 comdat align 2 {
  %3 = alloca ptr, align 8
  %4 = alloca ptr, align 8
  store ptr %0, ptr %3, align 8
  store ptr %1, ptr %4, align 8
  %5 = load ptr, ptr %3, align 8
  %6 = load ptr, ptr %4, align 8
  %7 = load ptr, ptr %4, align 8
  %8 = call noundef i32 @_ZN15ExternalAddress16reloc_for_targetEPh(ptr noundef %7)
  call void @_ZN14AddressLiteralC2EPhN9relocInfo9relocTypeE(ptr noundef nonnull align 8 dereferenceable(56) %5, ptr noundef %6, i32 noundef %8)
  ret void
}

; Function Attrs: mustprogress nounwind uwtable
define linkonce_odr hidden noundef ptr @_ZN12Disassembler4hookI25InterpreterMacroAssemblerEEPT_PKciS3_(ptr noundef %0, i32 noundef %1, ptr noundef %2) #1 comdat align 2 {
  %4 = alloca ptr, align 8
  %5 = alloca i32, align 4
  %6 = alloca ptr, align 8
  store ptr %0, ptr %4, align 8
  store i32 %1, ptr %5, align 4
  store ptr %2, ptr %6, align 8
  %7 = load i8, ptr @PrintInterpreter, align 1
  %8 = trunc i8 %7 to i1
  br i1 %8, label %9, label %13

9:                                                ; preds = %3
  %10 = load ptr, ptr %4, align 8
  %11 = load i32, ptr %5, align 4
  %12 = load ptr, ptr %6, align 8
  call void @_ZN12Disassembler5_hookEPKciP14MacroAssembler(ptr noundef %10, i32 noundef %11, ptr noundef %12)
  br label %13

13:                                               ; preds = %9, %3
  %14 = load ptr, ptr %6, align 8
  ret ptr %14
}

; Function Attrs: mustprogress nounwind uwtable
define hidden void @_ZN13TemplateTable4lremEv() #1 align 2 {
  %1 = alloca %class.Register, align 4
  %2 = alloca %class.Register, align 4
  %3 = alloca %class.Register, align 4
  %4 = alloca %class.Register, align 4
  %5 = alloca %class.Register, align 4
  %6 = alloca %class.AddressLiteral, align 8
  %7 = alloca %class.ExternalAddress, align 8
  %8 = alloca %class.Register, align 4
  %9 = alloca %class.Register, align 4
  %10 = alloca %class.Register, align 4
  %11 = alloca %class.Register, align 4
  call void @_ZN13TemplateTable10transitionE8TosStateS0_(i32 noundef 5, i32 noundef 5)
  %12 = load ptr, ptr @_ZN13TemplateTable5_masmE, align 8
  %13 = call noundef ptr @_ZN12Disassembler4hookI25InterpreterMacroAssemblerEEPT_PKciS3_(ptr noundef @.str, i32 noundef 1457, ptr noundef %12)
  call void @llvm.memcpy.p0.p0.i64(ptr align 4 %1, ptr align 4 @_ZL3rcx, i64 4, i1 false)
  call void @llvm.memcpy.p0.p0.i64(ptr align 4 %2, ptr align 4 @_ZL3rax, i64 4, i1 false)
  %14 = getelementptr inbounds %class.Register, ptr %1, i32 0, i32 0
  %15 = load i32, ptr %14, align 4
  %16 = getelementptr inbounds %class.Register, ptr %2, i32 0, i32 0
  %17 = load i32, ptr %16, align 4
  call void @_ZN9Assembler3movE8RegisterS0_(ptr noundef nonnull align 8 dereferenceable(40) %13, i32 %15, i32 %17)
  %18 = load ptr, ptr @_ZN13TemplateTable5_masmE, align 8
  %19 = call noundef ptr @_ZN12Disassembler4hookI25InterpreterMacroAssemblerEEPT_PKciS3_(ptr noundef @.str, i32 noundef 1458, ptr noundef %18)
  call void @llvm.memcpy.p0.p0.i64(ptr align 4 %3, ptr align 4 @_ZL3rax, i64 4, i1 false)
  %20 = getelementptr inbounds %class.Register, ptr %3, i32 0, i32 0
  %21 = load i32, ptr %20, align 4
  call void @_ZN25InterpreterMacroAssembler5pop_lE8Register(ptr noundef nonnull align 8 dereferenceable(48) %19, i32 %21)
  %22 = load ptr, ptr @_ZN13TemplateTable5_masmE, align 8
  %23 = call noundef ptr @_ZN12Disassembler4hookI25InterpreterMacroAssemblerEEPT_PKciS3_(ptr noundef @.str, i32 noundef 1459, ptr noundef %22)
  call void @llvm.memcpy.p0.p0.i64(ptr align 4 %4, ptr align 4 @_ZL3rcx, i64 4, i1 false)
  call void @llvm.memcpy.p0.p0.i64(ptr align 4 %5, ptr align 4 @_ZL3rcx, i64 4, i1 false)
  %24 = getelementptr inbounds %class.Register, ptr %4, i32 0, i32 0
  %25 = load i32, ptr %24, align 4
  %26 = getelementptr inbounds %class.Register, ptr %5, i32 0, i32 0
  %27 = load i32, ptr %26, align 4
  call void @_ZN9Assembler5testqE8RegisterS0_(ptr noundef nonnull align 8 dereferenceable(40) %23, i32 %25, i32 %27)
  %28 = load ptr, ptr @_ZN13TemplateTable5_masmE, align 8
  %29 = call noundef ptr @_ZN12Disassembler4hookI25InterpreterMacroAssemblerEEPT_PKciS3_(ptr noundef @.str, i32 noundef 1460, ptr noundef %28)
  %30 = load ptr, ptr @_ZN19TemplateInterpreter32_throw_ArithmeticException_entryE, align 8
  call void @_ZN15ExternalAddressC2EPh(ptr noundef nonnull align 8 dereferenceable(56) %7, ptr noundef %30)
  call void @_ZN14AddressLiteralC2EOS_(ptr noundef nonnull align 8 dereferenceable(56) %6, ptr noundef nonnull align 8 dereferenceable(56) %7)
  call void @llvm.memcpy.p0.p0.i64(ptr align 4 %8, ptr align 4 @_ZL5noreg, i64 4, i1 false)
  %31 = getelementptr inbounds %class.Register, ptr %8, i32 0, i32 0
  %32 = load i32, ptr %31, align 4
  call void @_ZN14MacroAssembler7jump_ccEN9Assembler9ConditionE14AddressLiteral8Register(ptr noundef nonnull align 8 dereferenceable(40) %29, i32 noundef 4, ptr noundef %6, i32 %32)
  %33 = load ptr, ptr @_ZN13TemplateTable5_masmE, align 8
  %34 = call noundef ptr @_ZN12Disassembler4hookI25InterpreterMacroAssemblerEEPT_PKciS3_(ptr noundef @.str, i32 noundef 1466, ptr noundef %33)
  call void @llvm.memcpy.p0.p0.i64(ptr align 4 %9, ptr align 4 @_ZL3rcx, i64 4, i1 false)
  %35 = getelementptr inbounds %class.Register, ptr %9, i32 0, i32 0
  %36 = load i32, ptr %35, align 4
  %37 = call noundef i32 @_ZN14MacroAssembler15corrected_idivqE8Register(ptr noundef nonnull align 8 dereferenceable(40) %34, i32 %36)
  %38 = load ptr, ptr @_ZN13TemplateTable5_masmE, align 8
  %39 = call noundef ptr @_ZN12Disassembler4hookI25InterpreterMacroAssemblerEEPT_PKciS3_(ptr noundef @.str, i32 noundef 1467, ptr noundef %38)
  call void @llvm.memcpy.p0.p0.i64(ptr align 4 %10, ptr align 4 @_ZL3rax, i64 4, i1 false)
  call void @llvm.memcpy.p0.p0.i64(ptr align 4 %11, ptr align 4 @_ZL3rdx, i64 4, i1 false)
  %40 = getelementptr inbounds %class.Register, ptr %10, i32 0, i32 0
  %41 = load i32, ptr %40, align 4
  %42 = getelementptr inbounds %class.Register, ptr %11, i32 0, i32 0
  %43 = load i32, ptr %42, align 4
  call void @_ZN9Assembler3movE8RegisterS0_(ptr noundef nonnull align 8 dereferenceable(40) %39, i32 %41, i32 %43)
  ret void
}