; Function Attrs: mustprogress nounwind uwtable
define hidden void @_ZN13TemplateTable4lremEv() local_unnamed_addr #0 align 2 {
  %1 = alloca %class.AddressLiteral, align 8
  %2 = alloca %class.ExternalAddress, align 8
  tail call void @_ZN13TemplateTable10transitionE8TosStateS0_(i32 noundef 5, i32 noundef 5) #8
  %3 = load ptr, ptr @_ZN13TemplateTable5_masmE, align 8
  %4 = load i8, ptr @PrintInterpreter, align 1
  %5 = trunc i8 %4 to i1
  br i1 %5, label %6, label %_ZN12Disassembler4hookI25InterpreterMacroAssemblerEEPT_PKciS3_.exit

6:                                                ; preds = %0
  tail call void @_ZN12Disassembler5_hookEPKciP14MacroAssembler(ptr noundef nonnull @.str, i32 noundef 1457, ptr noundef %3) #8
  br label %_ZN12Disassembler4hookI25InterpreterMacroAssemblerEEPT_PKciS3_.exit

_ZN12Disassembler4hookI25InterpreterMacroAssemblerEEPT_PKciS3_.exit: ; preds = %0, %6
  tail call void @_ZN9Assembler3movE8RegisterS0_(ptr noundef nonnull align 8 dereferenceable(40) %3, i32 1, i32 0) #8
  %7 = load ptr, ptr @_ZN13TemplateTable5_masmE, align 8
  %8 = load i8, ptr @PrintInterpreter, align 1
  %9 = trunc i8 %8 to i1
  br i1 %9, label %10, label %_ZN12Disassembler4hookI25InterpreterMacroAssemblerEEPT_PKciS3_.exit9

10:                                               ; preds = %_ZN12Disassembler4hookI25InterpreterMacroAssemblerEEPT_PKciS3_.exit
  tail call void @_ZN12Disassembler5_hookEPKciP14MacroAssembler(ptr noundef nonnull @.str, i32 noundef 1458, ptr noundef %7) #8
  br label %_ZN12Disassembler4hookI25InterpreterMacroAssemblerEEPT_PKciS3_.exit9

_ZN12Disassembler4hookI25InterpreterMacroAssemblerEEPT_PKciS3_.exit9: ; preds = %_ZN12Disassembler4hookI25InterpreterMacroAssemblerEEPT_PKciS3_.exit, %10
  tail call void @_ZN25InterpreterMacroAssembler5pop_lE8Register(ptr noundef nonnull align 8 dereferenceable(48) %7, i32 0) #8
  %11 = load ptr, ptr @_ZN13TemplateTable5_masmE, align 8
  %12 = load i8, ptr @PrintInterpreter, align 1
  %13 = trunc i8 %12 to i1
  br i1 %13, label %14, label %_ZN12Disassembler4hookI25InterpreterMacroAssemblerEEPT_PKciS3_.exit10

14:                                               ; preds = %_ZN12Disassembler4hookI25InterpreterMacroAssemblerEEPT_PKciS3_.exit9
  tail call void @_ZN12Disassembler5_hookEPKciP14MacroAssembler(ptr noundef nonnull @.str, i32 noundef 1459, ptr noundef %11) #8
  br label %_ZN12Disassembler4hookI25InterpreterMacroAssemblerEEPT_PKciS3_.exit10

_ZN12Disassembler4hookI25InterpreterMacroAssemblerEEPT_PKciS3_.exit10: ; preds = %_ZN12Disassembler4hookI25InterpreterMacroAssemblerEEPT_PKciS3_.exit9, %14
  tail call void @_ZN9Assembler5testqE8RegisterS0_(ptr noundef nonnull align 8 dereferenceable(40) %11, i32 1, i32 1) #8
  %15 = load ptr, ptr @_ZN13TemplateTable5_masmE, align 8
  %16 = load i8, ptr @PrintInterpreter, align 1
  %17 = trunc i8 %16 to i1
  br i1 %17, label %18, label %_ZN12Disassembler4hookI25InterpreterMacroAssemblerEEPT_PKciS3_.exit11

18:                                               ; preds = %_ZN12Disassembler4hookI25InterpreterMacroAssemblerEEPT_PKciS3_.exit10
  tail call void @_ZN12Disassembler5_hookEPKciP14MacroAssembler(ptr noundef nonnull @.str, i32 noundef 1460, ptr noundef %15) #8
  br label %_ZN12Disassembler4hookI25InterpreterMacroAssemblerEEPT_PKciS3_.exit11

_ZN12Disassembler4hookI25InterpreterMacroAssemblerEEPT_PKciS3_.exit11: ; preds = %_ZN12Disassembler4hookI25InterpreterMacroAssemblerEEPT_PKciS3_.exit10, %18
  %19 = load ptr, ptr @_ZN19TemplateInterpreter32_throw_ArithmeticException_entryE, align 8
  %.not.i.i = icmp eq ptr %19, null
  %20 = select i1 %.not.i.i, i32 0, i32 7
  call void @_ZN14AddressLiteralC2EPhN9relocInfo9relocTypeE(ptr noundef nonnull align 8 dereferenceable(56) %2, ptr noundef %19, i32 noundef %20) #8
  %21 = load ptr, ptr %2, align 8
  %22 = getelementptr inbounds i8, ptr %21, i64 16
  %23 = load ptr, ptr %22, align 8
  call void %23(ptr noundef nonnull align 8 dereferenceable(20) %2, ptr noundef nonnull align 8 dereferenceable(40) %1) #8
  %24 = getelementptr inbounds i8, ptr %1, i64 40
  %25 = getelementptr inbounds i8, ptr %2, i64 40
  call void @llvm.memcpy.p0.p0.i64(ptr noundef nonnull align 8 dereferenceable(16) %24, ptr noundef nonnull align 8 dereferenceable(16) %25, i64 16, i1 false)
  call void @_ZN14MacroAssembler7jump_ccEN9Assembler9ConditionE14AddressLiteral8Register(ptr noundef nonnull align 8 dereferenceable(40) %15, i32 noundef 4, ptr noundef nonnull %1, i32 -1) #8
  %26 = load ptr, ptr @_ZN13TemplateTable5_masmE, align 8
  %27 = load i8, ptr @PrintInterpreter, align 1
  %28 = trunc i8 %27 to i1
  br i1 %28, label %29, label %_ZN12Disassembler4hookI25InterpreterMacroAssemblerEEPT_PKciS3_.exit12

29:                                               ; preds = %_ZN12Disassembler4hookI25InterpreterMacroAssemblerEEPT_PKciS3_.exit11
  call void @_ZN12Disassembler5_hookEPKciP14MacroAssembler(ptr noundef nonnull @.str, i32 noundef 1466, ptr noundef %26) #8
  br label %_ZN12Disassembler4hookI25InterpreterMacroAssemblerEEPT_PKciS3_.exit12

_ZN12Disassembler4hookI25InterpreterMacroAssemblerEEPT_PKciS3_.exit12: ; preds = %_ZN12Disassembler4hookI25InterpreterMacroAssemblerEEPT_PKciS3_.exit11, %29
  %30 = call noundef i32 @_ZN14MacroAssembler15corrected_idivqE8Register(ptr noundef nonnull align 8 dereferenceable(40) %26, i32 1) #8
  %31 = load ptr, ptr @_ZN13TemplateTable5_masmE, align 8
  %32 = load i8, ptr @PrintInterpreter, align 1
  %33 = trunc i8 %32 to i1
  br i1 %33, label %34, label %_ZN12Disassembler4hookI25InterpreterMacroAssemblerEEPT_PKciS3_.exit13

34:                                               ; preds = %_ZN12Disassembler4hookI25InterpreterMacroAssemblerEEPT_PKciS3_.exit12
  call void @_ZN12Disassembler5_hookEPKciP14MacroAssembler(ptr noundef nonnull @.str, i32 noundef 1467, ptr noundef %31) #8
  br label %_ZN12Disassembler4hookI25InterpreterMacroAssemblerEEPT_PKciS3_.exit13

_ZN12Disassembler4hookI25InterpreterMacroAssemblerEEPT_PKciS3_.exit13: ; preds = %_ZN12Disassembler4hookI25InterpreterMacroAssemblerEEPT_PKciS3_.exit12, %34
  call void @_ZN9Assembler3movE8RegisterS0_(ptr noundef nonnull align 8 dereferenceable(40) %31, i32 0, i32 2) #8
  ret void
}